target datalayout = "e-m:e-p270:32:32-p271:32:32-p272:64:64-i64:64-i128:128-f80:128-n8:16:32:64-S128"
target triple = "x86_64-pc-linux-gnu"

%struct.lstopo_output = type { ptr, i32, i32, i32, ptr, i32, i32, i32, i32, i32, i32, i32, i32, ptr, ptr, i32, i32, i64, i64, i64, i32, [3 x [128 x i8]], i32, i32, ptr, i32, i32, i32, i32, i32, i32, %struct.hwloc_calc_level, i32, i32, i32, i64, [256 x i8], i32, i32, i32, i32, i32, float, [20 x i32], i32, i32, i32, [20 x i32], i32, [20 x i32], i32, [20 x i32], i32, i32, i32, i32, ptr, ptr, i32, [20 x i32], [20 x i32], [20 x i32], ptr, ptr, i64, ptr, i32, i32, i32 }
%struct.hwloc_calc_level = type { i32, i32, %union.hwloc_obj_attr_u, [32 x i8], i32, i32, i32, i32 }
%union.hwloc_obj_attr_u = type { %struct.hwloc_numanode_attr_s, [24 x i8] }
%struct.hwloc_numanode_attr_s = type { i64, i32, ptr }

; Function Attrs: nounwind uwtable
define internal void @ascii_line(ptr noundef %0, i32 noundef %1, i32 noundef %2, i32 noundef %3, i32 noundef %4, i32 noundef %5, ptr noundef %6, i32 noundef %7) #0 {
  %9 = alloca ptr, align 8
  %10 = alloca i32, align 4
  %11 = alloca i32, align 4
  %12 = alloca i32, align 4
  %13 = alloca i32, align 4
  %14 = alloca i32, align 4
  %15 = alloca ptr, align 8
  %16 = alloca i32, align 4
  %17 = alloca ptr, align 8
  %18 = alloca i32, align 4
  %19 = alloca i32, align 4
  %20 = alloca i32, align 4
  store ptr %0, ptr %9, align 8, !tbaa !4
  store i32 %1, ptr %10, align 4, !tbaa !13
  store i32 %2, ptr %11, align 4, !tbaa !13
  store i32 %3, ptr %12, align 4, !tbaa !13
  store i32 %4, ptr %13, align 4, !tbaa !13
  store i32 %5, ptr %14, align 4, !tbaa !13
  store ptr %6, ptr %15, align 8, !tbaa !69
  store i32 %7, ptr %16, align 4, !tbaa !13
  call void @llvm.lifetime.start.p0(i64 8, ptr %17) #8
  %21 = load ptr, ptr %9, align 8, !tbaa !4
  %22 = getelementptr inbounds nuw %struct.lstopo_output, ptr %21, i32 0, i32 63
  %23 = load ptr, ptr %22, align 8, !tbaa !44
  store ptr %23, ptr %17, align 8, !tbaa !71
  call void @llvm.lifetime.start.p0(i64 4, ptr %18) #8
  call void @llvm.lifetime.start.p0(i64 4, ptr %19) #8
  call void @llvm.lifetime.start.p0(i64 4, ptr %20) #8
  %24 = load i32, ptr %11, align 4, !tbaa !13
  %25 = mul i32 %24, 2
  %26 = udiv i32 %25, 10
  store i32 %26, ptr %11, align 4, !tbaa !13
  %27 = load i32, ptr %12, align 4, !tbaa !13
  %28 = udiv i32 %27, 10
  store i32 %28, ptr %12, align 4, !tbaa !13
  %29 = load i32, ptr %13, align 4, !tbaa !13
  %30 = mul i32 %29, 2
  %31 = udiv i32 %30, 10
  store i32 %31, ptr %13, align 4, !tbaa !13
  %32 = load i32, ptr %14, align 4, !tbaa !13
  %33 = udiv i32 %32, 10
  store i32 %33, ptr %14, align 4, !tbaa !13
  %34 = load i32, ptr %11, align 4, !tbaa !13
  %35 = load i32, ptr %13, align 4, !tbaa !13
  %36 = icmp ugt i32 %34, %35
  br i1 %36, label %37, label %41

37:                                               ; preds = %8
  %38 = load i32, ptr %11, align 4, !tbaa !13
  store i32 %38, ptr %20, align 4, !tbaa !13
  %39 = load i32, ptr %13, align 4, !tbaa !13
  store i32 %39, ptr %11, align 4, !tbaa !13
  %40 = load i32, ptr %20, align 4, !tbaa !13
  store i32 %40, ptr %13, align 4, !tbaa !13
  br label %41

41:                                               ; preds = %37, %8
  %42 = load i32, ptr %12, align 4, !tbaa !13
  %43 = load i32, ptr %14, align 4, !tbaa !13
  %44 = icmp ugt i32 %42, %43
  br i1 %44, label %45, label %49

45:                                               ; preds = %41
  %46 = load i32, ptr %12, align 4, !tbaa !13
  store i32 %46, ptr %20, align 4, !tbaa !13
  %47 = load i32, ptr %14, align 4, !tbaa !13
  store i32 %47, ptr %12, align 4, !tbaa !13
  %48 = load i32, ptr %20, align 4, !tbaa !13
  store i32 %48, ptr %14, align 4, !tbaa !13
  br label %49

49:                                               ; preds = %45, %41
  %50 = load i32, ptr %11, align 4, !tbaa !13
  %51 = load i32, ptr %13, align 4, !tbaa !13
  %52 = icmp eq i32 %50, %51
  br i1 %52, label %53, label %80

53:                                               ; preds = %49
  %54 = load i32, ptr %12, align 4, !tbaa !13
  %55 = load i32, ptr %14, align 4, !tbaa !13
  %56 = icmp eq i32 %54, %55
  br i1 %56, label %57, label %58

57:                                               ; preds = %53
  br label %65

58:                                               ; preds = %53
  %59 = load ptr, ptr %17, align 8, !tbaa !71
  %60 = load i32, ptr %11, align 4, !tbaa !13
  %61 = load i32, ptr %12, align 4, !tbaa !13
  call void @merge(ptr noundef %59, i32 noundef %60, i32 noundef %61, i32 noundef 2, i32 noundef 0, ptr noundef null)
  %62 = load ptr, ptr %17, align 8, !tbaa !71
  %63 = load i32, ptr %11, align 4, !tbaa !13
  %64 = load i32, ptr %14, align 4, !tbaa !13
  call void @merge(ptr noundef %62, i32 noundef %63, i32 noundef %64, i32 noundef 1, i32 noundef 0, ptr noundef null)
  br label %65

65:                                               ; preds = %58, %57
  %66 = load i32, ptr %12, align 4, !tbaa !13
  %67 = add i32 %66, 1
  store i32 %67, ptr %19, align 4, !tbaa !13
  br label %68

68:                                               ; preds = %76, %65
  %69 = load i32, ptr %19, align 4, !tbaa !13
  %70 = load i32, ptr %14, align 4, !tbaa !13
  %71 = icmp ult i32 %69, %70
  br i1 %71, label %72, label %79

72:                                               ; preds = %68
  %73 = load ptr, ptr %17, align 8, !tbaa !71
  %74 = load i32, ptr %11, align 4, !tbaa !13
  %75 = load i32, ptr %19, align 4, !tbaa !13
  call void @merge(ptr noundef %73, i32 noundef %74, i32 noundef %75, i32 noundef 3, i32 noundef 0, ptr noundef null)
  br label %76

76:                                               ; preds = %72
  %77 = load i32, ptr %19, align 4, !tbaa !13
  %78 = add i32 %77, 1
  store i32 %78, ptr %19, align 4, !tbaa !13
  br label %68, !llvm.loop !77

79:                                               ; preds = %68
  br label %107

80:                                               ; preds = %49
  %81 = load i32, ptr %12, align 4, !tbaa !13
  %82 = load i32, ptr %14, align 4, !tbaa !13
  %83 = icmp eq i32 %81, %82
  br i1 %83, label %84, label %105

84:                                               ; preds = %80
  %85 = load ptr, ptr %17, align 8, !tbaa !71
  %86 = load i32, ptr %11, align 4, !tbaa !13
  %87 = load i32, ptr %12, align 4, !tbaa !13
  call void @merge(ptr noundef %85, i32 noundef %86, i32 noundef %87, i32 noundef 8, i32 noundef 0, ptr noundef null)
  %88 = load ptr, ptr %17, align 8, !tbaa !71
  %89 = load i32, ptr %13, align 4, !tbaa !13
  %90 = load i32, ptr %12, align 4, !tbaa !13
  call void @merge(ptr noundef %88, i32 noundef %89, i32 noundef %90, i32 noundef 4, i32 noundef 0, ptr noundef null)
  %91 = load i32, ptr %11, align 4, !tbaa !13
  %92 = add i32 %91, 1
  store i32 %92, ptr %18, align 4, !tbaa !13
  br label %93

93:                                               ; preds = %101, %84
  %94 = load i32, ptr %18, align 4, !tbaa !13
  %95 = load i32, ptr %13, align 4, !tbaa !13
  %96 = icmp ult i32 %94, %95
  br i1 %96, label %97, label %104

97:                                               ; preds = %93
  %98 = load ptr, ptr %17, align 8, !tbaa !71
  %99 = load i32, ptr %18, align 4, !tbaa !13
  %100 = load i32, ptr %12, align 4, !tbaa !13
  call void @merge(ptr noundef %98, i32 noundef %99, i32 noundef %100, i32 noundef 12, i32 noundef 0, ptr noundef null)
  br label %101

101:                                              ; preds = %97
  %102 = load i32, ptr %18, align 4, !tbaa !13
  %103 = add i32 %102, 1
  store i32 %103, ptr %18, align 4, !tbaa !13
  br label %93, !llvm.loop !78

104:                                              ; preds = %93
  br label %106

105:                                              ; preds = %80
  br label %106

106:                                              ; preds = %105, %104
  br label %107

107:                                              ; preds = %106, %79
  call void @llvm.lifetime.end.p0(i64 4, ptr %20) #8
  call void @llvm.lifetime.end.p0(i64 4, ptr %19) #8
  call void @llvm.lifetime.end.p0(i64 4, ptr %18) #8
  call void @llvm.lifetime.end.p0(i64 8, ptr %17) #8
  ret void
}