; Function Attrs: nofree norecurse nosync nounwind memory(readwrite, inaccessiblemem: none) uwtable
define internal void @ascii_line(ptr noundef readonly captures(none) %0, i32 %1, i32 noundef %2, i32 noundef %3, i32 noundef %4, i32 noundef %5, ptr readnone captures(none) %6, i32 %7) #11 {
  %9 = getelementptr inbounds nuw i8, ptr %0, i64 1584
  %10 = load ptr, ptr %9, align 8, !tbaa !41
  %11 = shl i32 %2, 1
  %12 = udiv i32 %11, 10
  %13 = udiv i32 %3, 10
  %14 = shl i32 %4, 1
  %15 = udiv i32 %14, 10
  %16 = udiv i32 %5, 10
  %spec.select = tail call i32 @llvm.umax.i32(i32 %12, i32 %15)
  %spec.select58 = tail call i32 @llvm.umin.i32(i32 %12, i32 %15)
  %.050 = tail call i32 @llvm.umax.i32(i32 %13, i32 %16)
  %.048 = tail call i32 @llvm.umin.i32(i32 %13, i32 %16)
  %17 = icmp eq i32 %15, %12
  %18 = icmp eq i32 %16, %13
  br i1 %17, label %19, label %23

19:                                               ; preds = %8
  br i1 %18, label %21, label %20

20:                                               ; preds = %19
  tail call fastcc void @merge(ptr noundef %10, i32 noundef %spec.select58, i32 noundef %.048, i32 noundef 2, i32 noundef 0, ptr noundef null)
  tail call fastcc void @merge(ptr noundef %10, i32 noundef %spec.select58, i32 noundef %.050, i32 noundef 1, i32 noundef 0, ptr noundef null)
  br label %21

21:                                               ; preds = %19, %20
  %.062 = add nuw nsw i32 %.048, 1
  %22 = icmp samesign ult i32 %.062, %.050
  br i1 %22, label %.lr.ph64, label %.loopexit

.lr.ph64:                                         ; preds = %21, %.lr.ph64
  %.063 = phi i32 [ %.0, %.lr.ph64 ], [ %.062, %21 ]
  tail call fastcc void @merge(ptr noundef %10, i32 noundef %spec.select58, i32 noundef %.063, i32 noundef 3, i32 noundef 0, ptr noundef null)
  %.0 = add nuw nsw i32 %.063, 1
  %exitcond66.not = icmp eq i32 %.0, %.050
  br i1 %exitcond66.not, label %.loopexit, label %.lr.ph64, !llvm.loop !72

23:                                               ; preds = %8
  br i1 %18, label %24, label %.loopexit

24:                                               ; preds = %23
  tail call fastcc void @merge(ptr noundef %10, i32 noundef %spec.select58, i32 noundef %.048, i32 noundef 8, i32 noundef 0, ptr noundef null)
  tail call fastcc void @merge(ptr noundef %10, i32 noundef %spec.select, i32 noundef %.048, i32 noundef 4, i32 noundef 0, ptr noundef null)
  %.04660 = add nuw nsw i32 %spec.select58, 1
  %25 = icmp samesign ult i32 %.04660, %spec.select
  br i1 %25, label %.lr.ph, label %.loopexit

.lr.ph:                                           ; preds = %24, %.lr.ph
  %.04661 = phi i32 [ %.046, %.lr.ph ], [ %.04660, %24 ]
  tail call fastcc void @merge(ptr noundef %10, i32 noundef %.04661, i32 noundef %.048, i32 noundef 12, i32 noundef 0, ptr noundef null)
  %.046 = add nuw nsw i32 %.04661, 1
  %exitcond.not = icmp eq i32 %.046, %spec.select
  br i1 %exitcond.not, label %.loopexit, label %.lr.ph, !llvm.loop !73

.loopexit:                                        ; preds = %.lr.ph, %.lr.ph64, %24, %21, %23
  ret void
}